target datalayout = "e-m:e-p270:32:32-p271:32:32-p272:64:64-i64:64-i128:128-f80:128-n8:16:32:64-S128"
target triple = "x86_64-pc-linux-gnu"

%struct.PageHeaderData = type { %struct.PageXLogRecPtr, i16, i16, i16, i16, i16, i16, i32, [0 x %struct.ItemIdData] }
%struct.PageXLogRecPtr = type { i32, i32 }
%struct.ItemIdData = type { i32 }
%struct.BTPageOpaqueData = type { i32, i32, i32, i16, i16 }
%struct.BTScanInsertData = type { i8, i8, i8, i8, i8, ptr, i32, [32 x %struct.ScanKeyData] }
%struct.ScanKeyData = type { i32, i16, i16, i32, i32, %struct.FmgrInfo, i64 }
%struct.FmgrInfo = type { ptr, i32, i16, i8, i8, i8, ptr, ptr, ptr }
%struct.RelationData = type { %struct.RelFileLocator, ptr, i32, i32, i8, i8, i8, i8, i8, i32, i32, i32, i32, ptr, ptr, i32, %struct.LockInfoData, ptr, ptr, ptr, ptr, ptr, i8, ptr, ptr, ptr, ptr, ptr, ptr, i32, ptr, i8, ptr, ptr, i32, i8, i32, ptr, i8, ptr, ptr, ptr, ptr, ptr, ptr, ptr, i32, ptr, ptr, ptr, ptr, ptr, ptr, ptr, ptr, ptr, ptr, ptr, ptr, ptr, ptr, ptr, ptr, ptr, ptr, ptr, i32, i8, ptr }
%struct.RelFileLocator = type { i32, i32, i32 }
%struct.LockInfoData = type { %struct.LockRelId }
%struct.LockRelId = type { i32, i32 }
%struct.FormData_pg_class = type { i32, %struct.nameData, i32, i32, i32, i32, i32, i32, i32, i32, float, i32, i32, i8, i8, i8, i8, i16, i16, i8, i8, i8, i8, i8, i8, i8, i8, i32, i32, i32 }
%struct.nameData = type { [64 x i8] }
%struct.ItemPointerData = type { %struct.BlockIdData, i16 }
%struct.BlockIdData = type { i16, i16 }
%struct.BTInsertStateData = type { ptr, i64, ptr, i32, i8, i16, i16, i32 }

@.str = private unnamed_addr constant [117 x i8] c"table tid from new index tuple (%u,%u) cannot find insert offset between offsets %u and %u of block %u in index \22%s\22\00", align 1
@.str.1 = private unnamed_addr constant [12 x i8] c"nbtsearch.c\00", align 1
@__func__._bt_binsrch_insert = private unnamed_addr constant [19 x i8] c"_bt_binsrch_insert\00", align 1
@LocalBufferBlockPointers = external global ptr, align 8
@BufferBlocks = external global ptr, align 8

; Function Attrs: inlinehint nounwind uwtable
define internal i32 @BlockIdGetBlockNumber(ptr noundef %0) #3 {
  %2 = alloca ptr, align 8
  store ptr %0, ptr %2, align 8
  %3 = load ptr, ptr %2, align 8
  %4 = getelementptr inbounds nuw %struct.BlockIdData, ptr %3, i32 0, i32 0
  %5 = load i16, ptr %4, align 2
  %6 = zext i16 %5 to i32
  %7 = shl i32 %6, 16
  %8 = load ptr, ptr %2, align 8
  %9 = getelementptr inbounds nuw %struct.BlockIdData, ptr %8, i32 0, i32 1
  %10 = load i16, ptr %9, align 2
  %11 = zext i16 %10 to i32
  %12 = or i32 %7, %11
  ret i32 %12
}

; Function Attrs: inlinehint nounwind uwtable
define internal zeroext i16 @ItemPointerGetOffsetNumberNoCheck(ptr noundef %0) #3 {
  %2 = alloca ptr, align 8
  store ptr %0, ptr %2, align 8
  %3 = load ptr, ptr %2, align 8
  %4 = getelementptr inbounds nuw %struct.ItemPointerData, ptr %3, i32 0, i32 1
  %5 = load i16, ptr %4, align 2
  ret i16 %5
}

; Function Attrs: inlinehint nounwind uwtable
define internal i32 @ItemPointerGetBlockNumberNoCheck(ptr noundef %0) #3 {
  %2 = alloca ptr, align 8
  store ptr %0, ptr %2, align 8
  %3 = load ptr, ptr %2, align 8
  %4 = getelementptr inbounds nuw %struct.ItemPointerData, ptr %3, i32 0, i32 0
  %5 = call i32 @BlockIdGetBlockNumber(ptr noundef %4)
  ret i32 %5
}

; Function Attrs: inlinehint nounwind uwtable
define internal ptr @BufferGetBlock(i32 noundef %0) #3 {
  %2 = alloca ptr, align 8
  %3 = alloca i32, align 4
  store i32 %0, ptr %3, align 4
  %4 = load i32, ptr %3, align 4
  %5 = icmp slt i32 %4, 0
  br i1 %5, label %6, label %14

6:                                                ; preds = %1
  %7 = load ptr, ptr @LocalBufferBlockPointers, align 8
  %8 = load i32, ptr %3, align 4
  %9 = sub i32 0, %8
  %10 = sub i32 %9, 1
  %11 = sext i32 %10 to i64
  %12 = getelementptr inbounds ptr, ptr %7, i64 %11
  %13 = load ptr, ptr %12, align 8
  store ptr %13, ptr %2, align 8
  br label %21

14:                                               ; preds = %1
  %15 = load ptr, ptr @BufferBlocks, align 8
  %16 = load i32, ptr %3, align 4
  %17 = sub i32 %16, 1
  %18 = sext i32 %17 to i64
  %19 = mul i64 %18, 8192
  %20 = getelementptr inbounds nuw i8, ptr %15, i64 %19
  store ptr %20, ptr %2, align 8
  br label %21

21:                                               ; preds = %14, %6
  %22 = load ptr, ptr %2, align 8
  ret ptr %22
}

; Function Attrs: inlinehint nounwind uwtable
define internal zeroext i16 @ItemPointerGetOffsetNumber(ptr noundef %0) #3 {
  %2 = alloca ptr, align 8
  store ptr %0, ptr %2, align 8
  %3 = load ptr, ptr %2, align 8
  %4 = call zeroext i16 @ItemPointerGetOffsetNumberNoCheck(ptr noundef %3)
  ret i16 %4
}

; Function Attrs: inlinehint nounwind uwtable
define internal i32 @ItemPointerGetBlockNumber(ptr noundef %0) #3 {
  %2 = alloca ptr, align 8
  store ptr %0, ptr %2, align 8
  %3 = load ptr, ptr %2, align 8
  %4 = call i32 @ItemPointerGetBlockNumberNoCheck(ptr noundef %3)
  ret i32 %4
}

; Function Attrs: inlinehint nounwind uwtable
define internal zeroext i16 @PageGetMaxOffsetNumber(ptr noundef %0) #3 {
  %2 = alloca i16, align 2
  %3 = alloca ptr, align 8
  %4 = alloca ptr, align 8
  %5 = alloca i32, align 4
  store ptr %0, ptr %3, align 8
  call void @llvm.lifetime.start.p0(i64 8, ptr %4) #7
  %6 = load ptr, ptr %3, align 8
  store ptr %6, ptr %4, align 8
  %7 = load ptr, ptr %4, align 8
  %8 = getelementptr inbounds nuw %struct.PageHeaderData, ptr %7, i32 0, i32 3
  %9 = load i16, ptr %8, align 4
  %10 = zext i16 %9 to i64
  %11 = icmp ule i64 %10, 24
  br i1 %11, label %12, label %13

12:                                               ; preds = %1
  store i16 0, ptr %2, align 2
  store i32 1, ptr %5, align 4
  br label %21

13:                                               ; preds = %1
  %14 = load ptr, ptr %4, align 8
  %15 = getelementptr inbounds nuw %struct.PageHeaderData, ptr %14, i32 0, i32 3
  %16 = load i16, ptr %15, align 4
  %17 = zext i16 %16 to i64
  %18 = sub i64 %17, 24
  %19 = udiv i64 %18, 4
  %20 = trunc i64 %19 to i16
  store i16 %20, ptr %2, align 2
  store i32 1, ptr %5, align 4
  br label %21

21:                                               ; preds = %13, %12
  call void @llvm.lifetime.end.p0(i64 8, ptr %4) #7
  %22 = load i16, ptr %2, align 2
  ret i16 %22
}

; Function Attrs: inlinehint nounwind uwtable
define internal void @PageValidateSpecialPointer(ptr noundef %0) #3 {
  %2 = alloca ptr, align 8
  store ptr %0, ptr %2, align 8
  ret void
}

; Function Attrs: inlinehint nounwind uwtable
define internal ptr @BufferGetPage(i32 noundef %0) #3 {
  %2 = alloca i32, align 4
  store i32 %0, ptr %2, align 4
  %3 = load i32, ptr %2, align 4
  %4 = call ptr @BufferGetBlock(i32 noundef %3)
  ret ptr %4
}

; Function Attrs: nounwind uwtable
define dso_local zeroext i16 @_bt_binsrch_insert(ptr noundef %0, ptr noundef %1) #0 {
  %3 = alloca i16, align 2
  %4 = alloca ptr, align 8
  %5 = alloca ptr, align 8
  %6 = alloca ptr, align 8
  %7 = alloca ptr, align 8
  %8 = alloca ptr, align 8
  %9 = alloca i16, align 2
  %10 = alloca i16, align 2
  %11 = alloca i16, align 2
  %12 = alloca i32, align 4
  %13 = alloca i32, align 4
  %14 = alloca i32, align 4
  %15 = alloca i16, align 2
  store ptr %0, ptr %4, align 8
  store ptr %1, ptr %5, align 8
  call void @llvm.lifetime.start.p0(i64 8, ptr %6) #7
  %16 = load ptr, ptr %5, align 8
  %17 = getelementptr inbounds nuw %struct.BTInsertStateData, ptr %16, i32 0, i32 2
  %18 = load ptr, ptr %17, align 8
  store ptr %18, ptr %6, align 8
  call void @llvm.lifetime.start.p0(i64 8, ptr %7) #7
  call void @llvm.lifetime.start.p0(i64 8, ptr %8) #7
  call void @llvm.lifetime.start.p0(i64 2, ptr %9) #7
  call void @llvm.lifetime.start.p0(i64 2, ptr %10) #7
  call void @llvm.lifetime.start.p0(i64 2, ptr %11) #7
  call void @llvm.lifetime.start.p0(i64 4, ptr %12) #7
  call void @llvm.lifetime.start.p0(i64 4, ptr %13) #7
  %19 = load ptr, ptr %5, align 8
  %20 = getelementptr inbounds nuw %struct.BTInsertStateData, ptr %19, i32 0, i32 3
  %21 = load i32, ptr %20, align 8
  %22 = call ptr @BufferGetPage(i32 noundef %21)
  store ptr %22, ptr %7, align 8
  %23 = load ptr, ptr %7, align 8
  call void @PageValidateSpecialPointer(ptr noundef %23)
  %24 = load ptr, ptr %7, align 8
  %25 = load ptr, ptr %7, align 8
  %26 = getelementptr inbounds nuw %struct.PageHeaderData, ptr %25, i32 0, i32 5
  %27 = load i16, ptr %26, align 4
  %28 = zext i16 %27 to i32
  %29 = sext i32 %28 to i64
  %30 = getelementptr inbounds i8, ptr %24, i64 %29
  store ptr %30, ptr %8, align 8
  %31 = load ptr, ptr %5, align 8
  %32 = getelementptr inbounds nuw %struct.BTInsertStateData, ptr %31, i32 0, i32 4
  %33 = load i8, ptr %32, align 4, !range !4, !noundef !5
  %34 = trunc i8 %33 to i1
  br i1 %34, label %44, label %35

35:                                               ; preds = %2
  %36 = load ptr, ptr %8, align 8
  %37 = getelementptr inbounds nuw %struct.BTPageOpaqueData, ptr %36, i32 0, i32 1
  %38 = load i32, ptr %37, align 4
  %39 = icmp eq i32 %38, 0
  %40 = select i1 %39, i32 1, i32 2
  %41 = trunc i32 %40 to i16
  store i16 %41, ptr %9, align 2
  %42 = load ptr, ptr %7, align 8
  %43 = call zeroext i16 @PageGetMaxOffsetNumber(ptr noundef %42)
  store i16 %43, ptr %10, align 2
  br label %51

44:                                               ; preds = %2
  %45 = load ptr, ptr %5, align 8
  %46 = getelementptr inbounds nuw %struct.BTInsertStateData, ptr %45, i32 0, i32 5
  %47 = load i16, ptr %46, align 2
  store i16 %47, ptr %9, align 2
  %48 = load ptr, ptr %5, align 8
  %49 = getelementptr inbounds nuw %struct.BTInsertStateData, ptr %48, i32 0, i32 6
  %50 = load i16, ptr %49, align 8
  store i16 %50, ptr %10, align 2
  br label %51

51:                                               ; preds = %44, %35
  %52 = load i16, ptr %10, align 2
  %53 = zext i16 %52 to i32
  %54 = load i16, ptr %9, align 2
  %55 = zext i16 %54 to i32
  %56 = icmp slt i32 %53, %55
  %57 = zext i1 %56 to i32
  %58 = icmp ne i32 %57, 0
  %59 = zext i1 %58 to i32
  %60 = sext i32 %59 to i64
  %61 = call i64 @llvm.expect.i64(i64 %60, i64 0)
  %62 = icmp ne i64 %61, 0
  br i1 %62, label %63, label %71

63:                                               ; preds = %51
  %64 = load ptr, ptr %5, align 8
  %65 = getelementptr inbounds nuw %struct.BTInsertStateData, ptr %64, i32 0, i32 5
  store i16 0, ptr %65, align 2
  %66 = load ptr, ptr %5, align 8
  %67 = getelementptr inbounds nuw %struct.BTInsertStateData, ptr %66, i32 0, i32 6
  store i16 0, ptr %67, align 8
  %68 = load ptr, ptr %5, align 8
  %69 = getelementptr inbounds nuw %struct.BTInsertStateData, ptr %68, i32 0, i32 4
  store i8 0, ptr %69, align 4
  %70 = load i16, ptr %9, align 2
  store i16 %70, ptr %3, align 2
  store i32 1, ptr %14, align 4
  br label %192

71:                                               ; preds = %51
  %72 = load ptr, ptr %5, align 8
  %73 = getelementptr inbounds nuw %struct.BTInsertStateData, ptr %72, i32 0, i32 4
  %74 = load i8, ptr %73, align 4, !range !4, !noundef !5
  %75 = trunc i8 %74 to i1
  br i1 %75, label %79, label %76

76:                                               ; preds = %71
  %77 = load i16, ptr %10, align 2
  %78 = add i16 %77, 1
  store i16 %78, ptr %10, align 2
  br label %79

79:                                               ; preds = %76, %71
  %80 = load i16, ptr %10, align 2
  store i16 %80, ptr %11, align 2
  store i32 1, ptr %13, align 4
  br label %81

81:                                               ; preds = %181, %79
  %82 = load i16, ptr %10, align 2
  %83 = zext i16 %82 to i32
  %84 = load i16, ptr %9, align 2
  %85 = zext i16 %84 to i32
  %86 = icmp sgt i32 %83, %85
  br i1 %86, label %87, label %182

87:                                               ; preds = %81
  call void @llvm.lifetime.start.p0(i64 2, ptr %15) #7
  %88 = load i16, ptr %9, align 2
  %89 = zext i16 %88 to i32
  %90 = load i16, ptr %10, align 2
  %91 = zext i16 %90 to i32
  %92 = load i16, ptr %9, align 2
  %93 = zext i16 %92 to i32
  %94 = sub i32 %91, %93
  %95 = sdiv i32 %94, 2
  %96 = add i32 %89, %95
  %97 = trunc i32 %96 to i16
  store i16 %97, ptr %15, align 2
  %98 = load ptr, ptr %4, align 8
  %99 = load ptr, ptr %6, align 8
  %100 = load ptr, ptr %7, align 8
  %101 = load i16, ptr %15, align 2
  %102 = call i32 @_bt_compare(ptr noundef %98, ptr noundef %99, ptr noundef %100, i16 noundef zeroext %101)
  store i32 %102, ptr %12, align 4
  %103 = load i32, ptr %12, align 4
  %104 = load i32, ptr %13, align 4
  %105 = icmp sge i32 %103, %104
  br i1 %105, label %106, label %111

106:                                              ; preds = %87
  %107 = load i16, ptr %15, align 2
  %108 = zext i16 %107 to i32
  %109 = add i32 %108, 1
  %110 = trunc i32 %109 to i16
  store i16 %110, ptr %9, align 2
  br label %118

111:                                              ; preds = %87
  %112 = load i16, ptr %15, align 2
  store i16 %112, ptr %10, align 2
  %113 = load i32, ptr %12, align 4
  %114 = icmp ne i32 %113, 0
  br i1 %114, label %115, label %117

115:                                              ; preds = %111
  %116 = load i16, ptr %10, align 2
  store i16 %116, ptr %11, align 2
  br label %117

117:                                              ; preds = %115, %111
  br label %118

118:                                              ; preds = %117, %106
  %119 = load i32, ptr %12, align 4
  %120 = icmp eq i32 %119, 0
  br i1 %120, label %121, label %126

121:                                              ; preds = %118
  %122 = load ptr, ptr %6, align 8
  %123 = getelementptr inbounds nuw %struct.BTScanInsertData, ptr %122, i32 0, i32 5
  %124 = load ptr, ptr %123, align 8
  %125 = icmp ne ptr %124, null
  br label %126

126:                                              ; preds = %121, %118
  %127 = phi i1 [ false, %118 ], [ %125, %121 ]
  %128 = zext i1 %127 to i32
  %129 = icmp ne i32 %128, 0
  %130 = zext i1 %129 to i32
  %131 = sext i32 %130 to i64
  %132 = call i64 @llvm.expect.i64(i64 %131, i64 0)
  %133 = icmp ne i64 %132, 0
  br i1 %133, label %134, label %181

134:                                              ; preds = %126
  %135 = load ptr, ptr %5, align 8
  %136 = getelementptr inbounds nuw %struct.BTInsertStateData, ptr %135, i32 0, i32 7
  %137 = load i32, ptr %136, align 4
  %138 = icmp ne i32 %137, 0
  br i1 %138, label %139, label %174

139:                                              ; preds = %134
  br label %140

140:                                              ; preds = %139
  br i1 true, label %141, label %143

141:                                              ; preds = %140
  %142 = call zeroext i1 @errstart_cold(i32 noundef 21, ptr noundef null) #8
  br i1 %142, label %145, label %171

143:                                              ; preds = %140
  %144 = call zeroext i1 @errstart(i32 noundef 21, ptr noundef null)
  br i1 %144, label %145, label %171

145:                                              ; preds = %143, %141
  %146 = call i32 @errcode(i32 noundef 33557032)
  %147 = load ptr, ptr %6, align 8
  %148 = getelementptr inbounds nuw %struct.BTScanInsertData, ptr %147, i32 0, i32 5
  %149 = load ptr, ptr %148, align 8
  %150 = call i32 @ItemPointerGetBlockNumber(ptr noundef %149)
  %151 = load ptr, ptr %6, align 8
  %152 = getelementptr inbounds nuw %struct.BTScanInsertData, ptr %151, i32 0, i32 5
  %153 = load ptr, ptr %152, align 8
  %154 = call zeroext i16 @ItemPointerGetOffsetNumber(ptr noundef %153)
  %155 = zext i16 %154 to i32
  %156 = load i16, ptr %9, align 2
  %157 = zext i16 %156 to i32
  %158 = load i16, ptr %11, align 2
  %159 = zext i16 %158 to i32
  %160 = load ptr, ptr %5, align 8
  %161 = getelementptr inbounds nuw %struct.BTInsertStateData, ptr %160, i32 0, i32 3
  %162 = load i32, ptr %161, align 8
  %163 = call i32 @BufferGetBlockNumber(i32 noundef %162)
  %164 = load ptr, ptr %4, align 8
  %165 = getelementptr inbounds nuw %struct.RelationData, ptr %164, i32 0, i32 13
  %166 = load ptr, ptr %165, align 8
  %167 = getelementptr inbounds nuw %struct.FormData_pg_class, ptr %166, i32 0, i32 1
  %168 = getelementptr inbounds nuw %struct.nameData, ptr %167, i32 0, i32 0
  %169 = getelementptr inbounds [64 x i8], ptr %168, i64 0, i64 0
  %170 = call i32 (ptr, ...) @errmsg_internal(ptr noundef @.str, i32 noundef %150, i32 noundef %155, i32 noundef %157, i32 noundef %159, i32 noundef %163, ptr noundef %169)
  call void @errfinish(ptr noundef @.str.1, i32 noundef 570, ptr noundef @__func__._bt_binsrch_insert)
  br label %171

171:                                              ; preds = %145, %143, %141
  unreachable

172:                                              ; No predecessors!
  br label %173

173:                                              ; preds = %172
  br label %174

174:                                              ; preds = %173, %134
  %175 = load ptr, ptr %6, align 8
  %176 = load ptr, ptr %7, align 8
  %177 = load i16, ptr %15, align 2
  %178 = call i32 @_bt_binsrch_posting(ptr noundef %175, ptr noundef %176, i16 noundef zeroext %177)
  %179 = load ptr, ptr %5, align 8
  %180 = getelementptr inbounds nuw %struct.BTInsertStateData, ptr %179, i32 0, i32 7
  store i32 %178, ptr %180, align 4
  br label %181

181:                                              ; preds = %174, %126
  call void @llvm.lifetime.end.p0(i64 2, ptr %15) #7
  br label %81, !llvm.loop !8

182:                                              ; preds = %81
  %183 = load i16, ptr %9, align 2
  %184 = load ptr, ptr %5, align 8
  %185 = getelementptr inbounds nuw %struct.BTInsertStateData, ptr %184, i32 0, i32 5
  store i16 %183, ptr %185, align 2
  %186 = load i16, ptr %11, align 2
  %187 = load ptr, ptr %5, align 8
  %188 = getelementptr inbounds nuw %struct.BTInsertStateData, ptr %187, i32 0, i32 6
  store i16 %186, ptr %188, align 8
  %189 = load ptr, ptr %5, align 8
  %190 = getelementptr inbounds nuw %struct.BTInsertStateData, ptr %189, i32 0, i32 4
  store i8 1, ptr %190, align 4
  %191 = load i16, ptr %9, align 2
  store i16 %191, ptr %3, align 2
  store i32 1, ptr %14, align 4
  br label %192

192:                                              ; preds = %182, %63
  call void @llvm.lifetime.end.p0(i64 4, ptr %13) #7
  call void @llvm.lifetime.end.p0(i64 4, ptr %12) #7
  call void @llvm.lifetime.end.p0(i64 2, ptr %11) #7
  call void @llvm.lifetime.end.p0(i64 2, ptr %10) #7
  call void @llvm.lifetime.end.p0(i64 2, ptr %9) #7
  call void @llvm.lifetime.end.p0(i64 8, ptr %8) #7
  call void @llvm.lifetime.end.p0(i64 8, ptr %7) #7
  call void @llvm.lifetime.end.p0(i64 8, ptr %6) #7
  %193 = load i16, ptr %3, align 2
  ret i16 %193
}