; Function Attrs: nounwind uwtable
define dso_local zeroext i16 @_bt_binsrch_insert(ptr noundef readonly captures(none) %0, ptr noundef captures(none) %1) local_unnamed_addr #0 {
  %3 = getelementptr inbounds nuw i8, ptr %1, i64 16
  %4 = load ptr, ptr %3, align 8
  %5 = getelementptr inbounds nuw i8, ptr %1, i64 24
  %6 = load i32, ptr %5, align 8
  %7 = icmp slt i32 %6, 0
  br i1 %7, label %8, label %14

8:                                                ; preds = %2
  %9 = load ptr, ptr @LocalBufferBlockPointers, align 8
  %10 = xor i32 %6, -1
  %11 = zext nneg i32 %10 to i64
  %12 = getelementptr inbounds nuw ptr, ptr %9, i64 %11
  %13 = load ptr, ptr %12, align 8
  br label %BufferGetPage.exit

14:                                               ; preds = %2
  %15 = load ptr, ptr @BufferBlocks, align 8
  %16 = add nsw i32 %6, -1
  %17 = sext i32 %16 to i64
  %18 = shl nsw i64 %17, 13
  %19 = getelementptr inbounds nuw i8, ptr %15, i64 %18
  br label %BufferGetPage.exit

BufferGetPage.exit:                               ; preds = %8, %14
  %.0.i.i = phi ptr [ %13, %8 ], [ %19, %14 ]
  %20 = getelementptr inbounds nuw i8, ptr %1, i64 28
  %21 = load i8, ptr %20, align 4, !range !5, !noundef !6
  %22 = trunc nuw i8 %21 to i1
  br i1 %22, label %38, label %23

23:                                               ; preds = %BufferGetPage.exit
  %24 = getelementptr inbounds nuw i8, ptr %.0.i.i, i64 16
  %25 = load i16, ptr %24, align 4
  %26 = zext i16 %25 to i64
  %27 = getelementptr inbounds nuw i8, ptr %.0.i.i, i64 %26
  %28 = getelementptr inbounds nuw i8, ptr %27, i64 4
  %29 = load i32, ptr %28, align 4
  %30 = icmp eq i32 %29, 0
  %31 = select i1 %30, i16 1, i16 2
  %32 = getelementptr i8, ptr %.0.i.i, i64 12
  %.val = load i16, ptr %32, align 4
  %33 = icmp ult i16 %.val, 25
  %34 = zext i16 %.val to i32
  %35 = add nuw nsw i32 %34, 262120
  %36 = lshr i32 %35, 2
  %37 = trunc i32 %36 to i16
  %.0.i = select i1 %33, i16 0, i16 %37
  br label %43

38:                                               ; preds = %BufferGetPage.exit
  %39 = getelementptr inbounds nuw i8, ptr %1, i64 30
  %40 = load i16, ptr %39, align 2
  %41 = getelementptr inbounds nuw i8, ptr %1, i64 32
  %42 = load i16, ptr %41, align 8
  br label %43

43:                                               ; preds = %38, %23
  %.054 = phi i16 [ %42, %38 ], [ %.0.i, %23 ]
  %.053 = phi i16 [ %40, %38 ], [ %31, %23 ]
  %44 = icmp ult i16 %.054, %.053
  br i1 %44, label %._crit_edge, label %45, !prof !4

45:                                               ; preds = %43
  %not. = xor i1 %22, true
  %46 = zext i1 %not. to i16
  %spec.select = add i16 %.054, %46
  %47 = icmp ugt i16 %spec.select, %.053
  br i1 %47, label %.lr.ph, label %._crit_edge

.lr.ph:                                           ; preds = %45
  %48 = getelementptr inbounds nuw i8, ptr %4, i64 8
  %49 = getelementptr inbounds nuw i8, ptr %1, i64 36
  br label %50

50:                                               ; preds = %.lr.ph, %.critedge
  %.172 = phi i16 [ %.053, %.lr.ph ], [ %.2, %.critedge ]
  %.25671 = phi i16 [ %spec.select, %.lr.ph ], [ %.3, %.critedge ]
  %.05770 = phi i16 [ %spec.select, %.lr.ph ], [ %.158, %.critedge ]
  %narrow = sub nuw i16 %.25671, %.172
  %51 = lshr i16 %narrow, 1
  %52 = add i16 %51, %.172
  %53 = tail call i32 @_bt_compare(ptr noundef %0, ptr noundef %4, ptr noundef %.0.i.i, i16 noundef zeroext %52)
  %54 = icmp sgt i32 %53, 0
  %55 = add i16 %52, 1
  %.not = icmp eq i32 %53, 0
  %56 = icmp slt i32 %53, 0
  %.158 = select i1 %56, i16 %52, i16 %.05770
  %.3 = select i1 %54, i16 %.25671, i16 %52
  %.2 = select i1 %54, i16 %55, i16 %.172
  br i1 %.not, label %57, label %.critedge

57:                                               ; preds = %50
  %58 = load ptr, ptr %48, align 8
  %.not67 = icmp eq ptr %58, null
  br i1 %.not67, label %.critedge, label %59, !prof !9

59:                                               ; preds = %57
  %60 = load i32, ptr %49, align 4
  %.not62 = icmp eq i32 %60, 0
  br i1 %.not62, label %80, label %61

61:                                               ; preds = %59
  %62 = tail call zeroext i1 @errstart_cold(i32 noundef 21, ptr noundef null) #8
  tail call void @llvm.assume(i1 %62)
  %63 = tail call i32 @errcode(i32 noundef 33557032) #7
  %64 = load ptr, ptr %48, align 8
  %.val64 = load i16, ptr %64, align 2
  %65 = getelementptr i8, ptr %64, i64 2
  %.val65 = load i16, ptr %65, align 2
  %66 = zext i16 %.val64 to i32
  %67 = shl nuw i32 %66, 16
  %68 = zext i16 %.val65 to i32
  %69 = or disjoint i32 %67, %68
  %70 = getelementptr i8, ptr %64, i64 4
  %.val66 = load i16, ptr %70, align 2
  %71 = zext i16 %.val66 to i32
  %72 = zext i16 %.172 to i32
  %73 = zext i16 %.05770 to i32
  %74 = load i32, ptr %5, align 8
  %75 = tail call i32 @BufferGetBlockNumber(i32 noundef %74) #7
  %76 = getelementptr inbounds nuw i8, ptr %0, i64 56
  %77 = load ptr, ptr %76, align 8
  %78 = getelementptr inbounds nuw i8, ptr %77, i64 4
  %79 = tail call i32 (ptr, ...) @errmsg_internal(ptr noundef nonnull @.str, i32 noundef %69, i32 noundef %71, i32 noundef %72, i32 noundef %73, i32 noundef %75, ptr noundef nonnull %78) #7
  tail call void @errfinish(ptr noundef nonnull @.str.1, i32 noundef 570, ptr noundef nonnull @__func__._bt_binsrch_insert) #7
  unreachable

80:                                               ; preds = %59
  %81 = tail call fastcc i32 @_bt_binsrch_posting(ptr noundef nonnull %4, ptr noundef %.0.i.i, i16 noundef zeroext %52)
  store i32 %81, ptr %49, align 4
  br label %.critedge

.critedge:                                        ; preds = %50, %80, %57
  %82 = icmp ugt i16 %.3, %.2
  br i1 %82, label %50, label %._crit_edge, !llvm.loop !10

._crit_edge:                                      ; preds = %.critedge, %45, %43
  %.1.lcssa.sink = phi i16 [ 0, %43 ], [ %.053, %45 ], [ %.2, %.critedge ]
  %.057.lcssa.sink = phi i16 [ 0, %43 ], [ %spec.select, %45 ], [ %.158, %.critedge ]
  %storemerge = phi i8 [ 0, %43 ], [ 1, %45 ], [ 1, %.critedge ]
  %.0 = phi i16 [ %.053, %43 ], [ %.053, %45 ], [ %.2, %.critedge ]
  %83 = getelementptr inbounds nuw i8, ptr %1, i64 30
  store i16 %.1.lcssa.sink, ptr %83, align 2
  %84 = getelementptr inbounds nuw i8, ptr %1, i64 32
  store i16 %.057.lcssa.sink, ptr %84, align 8
  store i8 %storemerge, ptr %20, align 4
  ret i16 %.0
}